; Function Attrs: mustprogress nounwind uwtable
define internal fastcc void @_ZL15emitSignedInt64RN4llvm15SmallVectorImplImEEm(ptr noundef nonnull align 8 dereferenceable(16) %0, i64 noundef %1) unnamed_addr #0 {
  %3 = icmp sgt i64 %1, -1
  br i1 %3, label %4, label %9

4:                                                ; preds = %2
  %5 = shl nuw i64 %1, 1
  %6 = tail call noundef i64 @_ZNK4llvm15SmallVectorBaseIjE4sizeEv(ptr noundef nonnull align 8 dereferenceable(16) %0) #27
  %7 = add i64 %6, 1
  %8 = tail call noundef i64 @_ZNK4llvm15SmallVectorBaseIjE8capacityEv(ptr noundef nonnull align 8 dereferenceable(16) %0) #27
  %.not.i.i.i = icmp ugt i64 %7, %8
  br i1 %.not.i.i.i, label %_ZN4llvm23SmallVectorTemplateBaseImLb1EE9push_backEm.exit.sink.split, label %_ZN4llvm23SmallVectorTemplateBaseImLb1EE9push_backEm.exit

9:                                                ; preds = %2
  %.neg = mul i64 %1, -2
  %10 = or disjoint i64 %.neg, 1
  %11 = tail call noundef i64 @_ZNK4llvm15SmallVectorBaseIjE4sizeEv(ptr noundef nonnull align 8 dereferenceable(16) %0) #27
  %12 = add i64 %11, 1
  %13 = tail call noundef i64 @_ZNK4llvm15SmallVectorBaseIjE8capacityEv(ptr noundef nonnull align 8 dereferenceable(16) %0) #27
  %.not.i.i.i4 = icmp ugt i64 %12, %13
  br i1 %.not.i.i.i4, label %_ZN4llvm23SmallVectorTemplateBaseImLb1EE9push_backEm.exit.sink.split, label %_ZN4llvm23SmallVectorTemplateBaseImLb1EE9push_backEm.exit

_ZN4llvm23SmallVectorTemplateBaseImLb1EE9push_backEm.exit.sink.split: ; preds = %9, %4
  %.sink11 = phi i64 [ %7, %4 ], [ %12, %9 ]
  %.sink.ph = phi i64 [ %5, %4 ], [ %10, %9 ]
  %14 = getelementptr inbounds i8, ptr %0, i64 16
  tail call void @_ZN4llvm15SmallVectorBaseIjE8grow_podEPvmm(ptr noundef nonnull align 8 dereferenceable(16) %0, ptr noundef nonnull %14, i64 noundef %.sink11, i64 noundef 8) #27
  br label %_ZN4llvm23SmallVectorTemplateBaseImLb1EE9push_backEm.exit

_ZN4llvm23SmallVectorTemplateBaseImLb1EE9push_backEm.exit: ; preds = %_ZN4llvm23SmallVectorTemplateBaseImLb1EE9push_backEm.exit.sink.split, %9, %4
  %.sink = phi i64 [ %5, %4 ], [ %10, %9 ], [ %.sink.ph, %_ZN4llvm23SmallVectorTemplateBaseImLb1EE9push_backEm.exit.sink.split ]
  %15 = load ptr, ptr %0, align 8
  %16 = tail call noundef i64 @_ZNK4llvm15SmallVectorBaseIjE4sizeEv(ptr noundef nonnull align 8 dereferenceable(16) %0) #27
  %17 = getelementptr inbounds i64, ptr %15, i64 %16
  store i64 %.sink, ptr %17, align 1
  %18 = tail call noundef i64 @_ZNK4llvm15SmallVectorBaseIjE4sizeEv(ptr noundef nonnull align 8 dereferenceable(16) %0) #27
  %19 = add i64 %18, 1
  tail call void @_ZN4llvm15SmallVectorBaseIjE8set_sizeEm(ptr noundef nonnull align 8 dereferenceable(16) %0, i64 noundef %19) #27
  ret void
}